; Function Attrs: mustprogress nofree nounwind willreturn memory(write, argmem: none, inaccessiblemem: readwrite) uwtable
define noalias noundef ptr @Gia_ManRelInitIns1() local_unnamed_addr #19 {
Vec_IntPush.exit25:
  %0 = tail call noalias dereferenceable_or_null(16) ptr @malloc(i64 noundef 16) #31
  %1 = getelementptr inbounds nuw i8, ptr %0, i64 4
  store i32 16, ptr %0, align 8, !tbaa !80
  %2 = tail call noalias dereferenceable_or_null(64) ptr @malloc(i64 noundef 64) #31
  %3 = getelementptr inbounds nuw i8, ptr %0, i64 8
  store ptr %2, ptr %3, align 8, !tbaa !29
  store i32 22, ptr %2, align 4, !tbaa !30
  %4 = getelementptr inbounds nuw i8, ptr %2, i64 4
  store i32 25, ptr %4, align 4, !tbaa !30
  %5 = getelementptr inbounds nuw i8, ptr %2, i64 8
  store i32 42, ptr %5, align 4, !tbaa !30
  store i32 4, ptr %1, align 4, !tbaa !28
  %6 = getelementptr inbounds nuw i8, ptr %2, i64 12
  store i32 59, ptr %6, align 4, !tbaa !30
  ret ptr %0
}